; ModuleID = 'source-C-CXX/53/1682.cpp'
source_filename = "source-C-CXX/53/1682.cpp"
target datalayout = "e-m:e-p270:32:32-p271:32:32-p272:64:64-i64:64-f80:128-n8:16:32:64-S128"
target triple = "x86_64-pc-linux-gnu"

%"class.std::ios_base::Init" = type { i8 }
%"class.std::basic_istream" = type { i32 (...)**, i64, %"class.std::basic_ios" }
%"class.std::basic_ios" = type { %"class.std::ios_base", %"class.std::basic_ostream"*, i8, i8, %"class.std::basic_streambuf"*, %"class.std::ctype"*, %"class.std::num_put"*, %"class.std::num_get"* }
%"class.std::ios_base" = type { i32 (...)**, i64, i64, i32, i32, i32, %"struct.std::ios_base::_Callback_list"*, %"struct.std::ios_base::_Words", [8 x %"struct.std::ios_base::_Words"], i32, %"struct.std::ios_base::_Words"*, %"class.std::locale" }
%"struct.std::ios_base::_Callback_list" = type { %"struct.std::ios_base::_Callback_list"*, void (i32, %"class.std::ios_base"*, i32)*, i32, i32 }
%"struct.std::ios_base::_Words" = type { i8*, i64 }
%"class.std::locale" = type { %"class.std::locale::_Impl"* }
%"class.std::locale::_Impl" = type { i32, %"class.std::locale::facet"**, i64, %"class.std::locale::facet"**, i8** }
%"class.std::locale::facet" = type <{ i32 (...)**, i32, [4 x i8] }>
%"class.std::basic_ostream" = type { i32 (...)**, %"class.std::basic_ios" }
%"class.std::basic_streambuf" = type { i32 (...)**, i8*, i8*, i8*, i8*, i8*, i8*, %"class.std::locale" }
%"class.std::ctype" = type <{ %"class.std::locale::facet.base", [4 x i8], %struct.__locale_struct*, i8, [7 x i8], i32*, i32*, i16*, i8, [256 x i8], [256 x i8], i8, [6 x i8] }>
%"class.std::locale::facet.base" = type <{ i32 (...)**, i32 }>
%struct.__locale_struct = type { [13 x %struct.__locale_data*], i16*, i32*, i32*, [13 x i8*] }
%struct.__locale_data = type opaque
%"class.std::num_put" = type { %"class.std::locale::facet.base", [4 x i8] }
%"class.std::num_get" = type { %"class.std::locale::facet.base", [4 x i8] }

@_ZStL8__ioinit = internal global %"class.std::ios_base::Init" zeroinitializer, align 1
@__dso_handle = external hidden global i8
@m = dso_local local_unnamed_addr global i32 0, align 4
@n = dso_local global i32 0, align 4
@k = dso_local global i32 0, align 4
@num = dso_local local_unnamed_addr global i32 0, align 4
@_ZSt3cin = external global %"class.std::basic_istream", align 8
@_ZSt4cout = external global %"class.std::basic_ostream", align 8
@llvm.global_ctors = appending global [1 x { i32, void ()*, i8* }] [{ i32, void ()*, i8* } { i32 65535, void ()* @_GLOBAL__sub_I_1682.cpp, i8* null }]

declare void @_ZNSt8ios_base4InitC1Ev(%"class.std::ios_base::Init"* nonnull align 1 dereferenceable(1)) unnamed_addr #0

; Function Attrs: nounwind
declare void @_ZNSt8ios_base4InitD1Ev(%"class.std::ios_base::Init"* nonnull align 1 dereferenceable(1)) unnamed_addr #1

; Function Attrs: nofree nounwind
declare i32 @__cxa_atexit(void (i8*)*, i8*, i8*) local_unnamed_addr #2

; Function Attrs: mustprogress norecurse sspstrong uwtable
define dso_local i32 @main() local_unnamed_addr #3 {
  store i32 1, i32* @num, align 4, !tbaa !5
  %1 = tail call nonnull align 8 dereferenceable(16) %"class.std::basic_istream"* @_ZNSirsERi(%"class.std::basic_istream"* nonnull align 8 dereferenceable(16) @_ZSt3cin, i32* nonnull align 4 dereferenceable(4) @n)
  %2 = tail call nonnull align 8 dereferenceable(16) %"class.std::basic_istream"* @_ZNSirsERi(%"class.std::basic_istream"* nonnull align 8 dereferenceable(16) %1, i32* nonnull align 4 dereferenceable(4) @k)
  %3 = load i32, i32* @n, align 4, !tbaa !5
  %4 = load i32, i32* @num, align 4, !tbaa !5
  %5 = load i32, i32* @k, align 4
  %6 = add i32 %3, -1
  %7 = icmp eq i32 %3, 1
  br i1 %7, label %31, label %8

8:                                                ; preds = %0, %19
  %9 = phi i32 [ %20, %19 ], [ %4, %0 ]
  %10 = phi i32 [ %22, %19 ], [ %4, %0 ]
  %11 = phi i32 [ %21, %19 ], [ %3, %0 ]
  %12 = mul nsw i32 %10, %3
  %13 = add nsw i32 %12, %5
  %14 = srem i32 %13, %6
  %15 = sdiv i32 %13, %6
  %16 = icmp eq i32 %14, 0
  br i1 %16, label %17, label %24

17:                                               ; preds = %8
  %18 = add nsw i32 %11, -1
  br label %19

19:                                               ; preds = %24, %17
  %20 = phi i32 [ %9, %17 ], [ %30, %24 ]
  %21 = phi i32 [ %18, %17 ], [ %3, %24 ]
  %22 = phi i32 [ %15, %17 ], [ %30, %24 ]
  %23 = icmp eq i32 %21, 1
  br i1 %23, label %31, label %8

24:                                               ; preds = %8
  %25 = mul nsw i32 %9, %3
  %26 = add nsw i32 %25, %5
  %27 = srem i32 %26, %6
  %28 = icmp eq i32 %27, 0
  %29 = select i1 %28, i32 %6, i32 1
  %30 = add i32 %29, %9
  store i32 %30, i32* @num, align 4, !tbaa !5
  br label %19

31:                                               ; preds = %19, %0
  %32 = phi i32 [ %4, %0 ], [ %22, %19 ]
  %33 = mul nsw i32 %32, %3
  %34 = add nsw i32 %33, %5
  store i32 %34, i32* @m, align 4, !tbaa !5
  %35 = tail call nonnull align 8 dereferenceable(8) %"class.std::basic_ostream"* @_ZNSolsEi(%"class.std::basic_ostream"* nonnull align 8 dereferenceable(8) @_ZSt4cout, i32 %34)
  %36 = bitcast %"class.std::basic_ostream"* %35 to i8**
  %37 = load i8*, i8** %36, align 8, !tbaa !9
  %38 = getelementptr i8, i8* %37, i64 -24
  %39 = bitcast i8* %38 to i64*
  %40 = load i64, i64* %39, align 8
  %41 = bitcast %"class.std::basic_ostream"* %35 to i8*
  %42 = add nsw i64 %40, 240
  %43 = getelementptr inbounds i8, i8* %41, i64 %42
  %44 = bitcast i8* %43 to %"class.std::ctype"**
  %45 = load %"class.std::ctype"*, %"class.std::ctype"** %44, align 8, !tbaa !11
  %46 = icmp eq %"class.std::ctype"* %45, null
  br i1 %46, label %47, label %48

47:                                               ; preds = %31
  tail call void @_ZSt16__throw_bad_castv() #7
  unreachable

48:                                               ; preds = %31
  %49 = getelementptr inbounds %"class.std::ctype", %"class.std::ctype"* %45, i64 0, i32 8
  %50 = load i8, i8* %49, align 8, !tbaa !15
  %51 = icmp eq i8 %50, 0
  br i1 %51, label %55, label %52

52:                                               ; preds = %48
  %53 = getelementptr inbounds %"class.std::ctype", %"class.std::ctype"* %45, i64 0, i32 9, i64 10
  %54 = load i8, i8* %53, align 1, !tbaa !17
  br label %61

55:                                               ; preds = %48
  tail call void @_ZNKSt5ctypeIcE13_M_widen_initEv(%"class.std::ctype"* nonnull align 8 dereferenceable(570) %45)
  %56 = bitcast %"class.std::ctype"* %45 to i8 (%"class.std::ctype"*, i8)***
  %57 = load i8 (%"class.std::ctype"*, i8)**, i8 (%"class.std::ctype"*, i8)*** %56, align 8, !tbaa !9
  %58 = getelementptr inbounds i8 (%"class.std::ctype"*, i8)*, i8 (%"class.std::ctype"*, i8)** %57, i64 6
  %59 = load i8 (%"class.std::ctype"*, i8)*, i8 (%"class.std::ctype"*, i8)** %58, align 8
  %60 = tail call signext i8 %59(%"class.std::ctype"* nonnull align 8 dereferenceable(570) %45, i8 signext 10)
  br label %61

61:                                               ; preds = %52, %55
  %62 = phi i8 [ %54, %52 ], [ %60, %55 ]
  %63 = tail call nonnull align 8 dereferenceable(8) %"class.std::basic_ostream"* @_ZNSo3putEc(%"class.std::basic_ostream"* nonnull align 8 dereferenceable(8) %35, i8 signext %62)
  %64 = tail call nonnull align 8 dereferenceable(8) %"class.std::basic_ostream"* @_ZNSo5flushEv(%"class.std::basic_ostream"* nonnull align 8 dereferenceable(8) %63)
  ret i32 0
}

declare nonnull align 8 dereferenceable(16) %"class.std::basic_istream"* @_ZNSirsERi(%"class.std::basic_istream"* nonnull align 8 dereferenceable(16), i32* nonnull align 4 dereferenceable(4)) local_unnamed_addr #0

; Function Attrs: mustprogress nofree nosync nounwind sspstrong uwtable
define dso_local i32 @_Z6numberii(i32 %0, i32 %1) local_unnamed_addr #4 {
  %3 = load i32, i32* @n, align 4
  %4 = load i32, i32* @k, align 4
  %5 = add i32 %3, -1
  %6 = icmp eq i32 %0, 1
  br i1 %6, label %29, label %7

7:                                                ; preds = %2, %17
  %8 = phi i32 [ %19, %17 ], [ %1, %2 ]
  %9 = phi i32 [ %18, %17 ], [ %0, %2 ]
  %10 = mul nsw i32 %3, %8
  %11 = add nsw i32 %10, %4
  %12 = srem i32 %11, %5
  %13 = sdiv i32 %11, %5
  %14 = icmp eq i32 %12, 0
  br i1 %14, label %15, label %21

15:                                               ; preds = %7
  %16 = add nsw i32 %9, -1
  br label %17

17:                                               ; preds = %15, %21
  %18 = phi i32 [ %16, %15 ], [ %3, %21 ]
  %19 = phi i32 [ %13, %15 ], [ %28, %21 ]
  %20 = icmp eq i32 %18, 1
  br i1 %20, label %29, label %7

21:                                               ; preds = %7
  %22 = load i32, i32* @num, align 4, !tbaa !5
  %23 = mul nsw i32 %22, %3
  %24 = add nsw i32 %23, %4
  %25 = srem i32 %24, %5
  %26 = icmp eq i32 %25, 0
  %27 = select i1 %26, i32 %5, i32 1
  %28 = add i32 %22, %27
  store i32 %28, i32* @num, align 4, !tbaa !5
  br label %17

29:                                               ; preds = %17, %2
  %30 = phi i32 [ %1, %2 ], [ %19, %17 ]
  ret i32 %30
}

declare nonnull align 8 dereferenceable(8) %"class.std::basic_ostream"* @_ZNSolsEi(%"class.std::basic_ostream"* nonnull align 8 dereferenceable(8), i32) local_unnamed_addr #0

declare nonnull align 8 dereferenceable(8) %"class.std::basic_ostream"* @_ZNSo3putEc(%"class.std::basic_ostream"* nonnull align 8 dereferenceable(8), i8 signext) local_unnamed_addr #0

declare nonnull align 8 dereferenceable(8) %"class.std::basic_ostream"* @_ZNSo5flushEv(%"class.std::basic_ostream"* nonnull align 8 dereferenceable(8)) local_unnamed_addr #0

; Function Attrs: noreturn
declare void @_ZSt16__throw_bad_castv() local_unnamed_addr #5

declare void @_ZNKSt5ctypeIcE13_M_widen_initEv(%"class.std::ctype"* nonnull align 8 dereferenceable(570)) local_unnamed_addr #0

; Function Attrs: sspstrong uwtable
define internal void @_GLOBAL__sub_I_1682.cpp() #6 section ".text.startup" {
  tail call void @_ZNSt8ios_base4InitC1Ev(%"class.std::ios_base::Init"* nonnull align 1 dereferenceable(1) @_ZStL8__ioinit)
  %1 = tail call i32 @__cxa_atexit(void (i8*)* bitcast (void (%"class.std::ios_base::Init"*)* @_ZNSt8ios_base4InitD1Ev to void (i8*)*), i8* getelementptr inbounds (%"class.std::ios_base::Init", %"class.std::ios_base::Init"* @_ZStL8__ioinit, i64 0, i32 0), i8* nonnull @__dso_handle) #8
  ret void
}


!llvm.module.flags = !{!0, !1, !2, !3}
!llvm.ident = !{!4}

!0 = !{i32 1, !"wchar_size", i32 4}
!1 = !{i32 7, !"PIC Level", i32 2}
!2 = !{i32 7, !"PIE Level", i32 2}
!3 = !{i32 7, !"uwtable", i32 1}
!4 = !{!"clang version 13.0.0"}
!5 = !{!6, !6, i64 0}
!6 = !{!"int", !7, i64 0}
!7 = !{!"omnipotent char", !8, i64 0}
!8 = !{!"Simple C++ TBAA"}
!9 = !{!10, !10, i64 0}
!10 = !{!"vtable pointer", !8, i64 0}
!11 = !{!12, !13, i64 240}
!12 = !{!"_ZTSSt9basic_iosIcSt11char_traitsIcEE", !13, i64 216, !7, i64 224, !14, i64 225, !13, i64 232, !13, i64 240, !13, i64 248, !13, i64 256}
!13 = !{!"any pointer", !7, i64 0}
!14 = !{!"bool", !7, i64 0}
!15 = !{!16, !7, i64 56}
!16 = !{!"_ZTSSt5ctypeIcE", !13, i64 16, !14, i64 24, !13, i64 32, !13, i64 40, !13, i64 48, !7, i64 56, !7, i64 57, !7, i64 313, !7, i64 569}
!17 = !{!7, !7, i64 0}
